target datalayout = "e-m:e-p270:32:32-p271:32:32-p272:64:64-i64:64-i128:128-f80:128-n8:16:32:64-S128"
target triple = "x86_64-pc-linux-gnu"

%struct.ossl_cc_newreno_st = type { ptr, ptr, i64, i64, i32, i32, i32, i64, i64, i64, i64, i64, %struct.OSSL_TIME, i32, %struct.OSSL_TIME, i32, ptr, ptr, ptr, ptr, ptr }
%struct.OSSL_TIME = type { i64 }

; Function Attrs: nounwind uwtable
define internal void @newreno_update_diag(ptr noundef %0) #0 {
  %2 = alloca ptr, align 8
  store ptr %0, ptr %2, align 8, !tbaa !7
  %3 = load ptr, ptr %2, align 8, !tbaa !7
  %4 = getelementptr inbounds nuw %struct.ossl_cc_newreno_st, ptr %3, i32 0, i32 16
  %5 = load ptr, ptr %4, align 8, !tbaa !34
  %6 = icmp ne ptr %5, null
  br i1 %6, label %7, label %14

7:                                                ; preds = %1
  %8 = load ptr, ptr %2, align 8, !tbaa !7
  %9 = getelementptr inbounds nuw %struct.ossl_cc_newreno_st, ptr %8, i32 0, i32 7
  %10 = load i64, ptr %9, align 8, !tbaa !44
  %11 = load ptr, ptr %2, align 8, !tbaa !7
  %12 = getelementptr inbounds nuw %struct.ossl_cc_newreno_st, ptr %11, i32 0, i32 16
  %13 = load ptr, ptr %12, align 8, !tbaa !34
  store i64 %10, ptr %13, align 8, !tbaa !28
  br label %14

14:                                               ; preds = %7, %1
  %15 = load ptr, ptr %2, align 8, !tbaa !7
  %16 = getelementptr inbounds nuw %struct.ossl_cc_newreno_st, ptr %15, i32 0, i32 17
  %17 = load ptr, ptr %16, align 8, !tbaa !35
  %18 = icmp ne ptr %17, null
  br i1 %18, label %19, label %26

19:                                               ; preds = %14
  %20 = load ptr, ptr %2, align 8, !tbaa !7
  %21 = getelementptr inbounds nuw %struct.ossl_cc_newreno_st, ptr %20, i32 0, i32 9
  %22 = load i64, ptr %21, align 8, !tbaa !23
  %23 = load ptr, ptr %2, align 8, !tbaa !7
  %24 = getelementptr inbounds nuw %struct.ossl_cc_newreno_st, ptr %23, i32 0, i32 17
  %25 = load ptr, ptr %24, align 8, !tbaa !35
  store i64 %22, ptr %25, align 8, !tbaa !28
  br label %26

26:                                               ; preds = %19, %14
  %27 = load ptr, ptr %2, align 8, !tbaa !7
  %28 = getelementptr inbounds nuw %struct.ossl_cc_newreno_st, ptr %27, i32 0, i32 18
  %29 = load ptr, ptr %28, align 8, !tbaa !36
  %30 = icmp ne ptr %29, null
  br i1 %30, label %31, label %38

31:                                               ; preds = %26
  %32 = load ptr, ptr %2, align 8, !tbaa !7
  %33 = getelementptr inbounds nuw %struct.ossl_cc_newreno_st, ptr %32, i32 0, i32 3
  %34 = load i64, ptr %33, align 8, !tbaa !52
  %35 = load ptr, ptr %2, align 8, !tbaa !7
  %36 = getelementptr inbounds nuw %struct.ossl_cc_newreno_st, ptr %35, i32 0, i32 18
  %37 = load ptr, ptr %36, align 8, !tbaa !36
  store i64 %34, ptr %37, align 8, !tbaa !28
  br label %38

38:                                               ; preds = %31, %26
  %39 = load ptr, ptr %2, align 8, !tbaa !7
  %40 = getelementptr inbounds nuw %struct.ossl_cc_newreno_st, ptr %39, i32 0, i32 19
  %41 = load ptr, ptr %40, align 8, !tbaa !37
  %42 = icmp ne ptr %41, null
  br i1 %42, label %43, label %50

43:                                               ; preds = %38
  %44 = load ptr, ptr %2, align 8, !tbaa !7
  %45 = getelementptr inbounds nuw %struct.ossl_cc_newreno_st, ptr %44, i32 0, i32 8
  %46 = load i64, ptr %45, align 8, !tbaa !24
  %47 = load ptr, ptr %2, align 8, !tbaa !7
  %48 = getelementptr inbounds nuw %struct.ossl_cc_newreno_st, ptr %47, i32 0, i32 19
  %49 = load ptr, ptr %48, align 8, !tbaa !37
  store i64 %46, ptr %49, align 8, !tbaa !28
  br label %50

50:                                               ; preds = %43, %38
  %51 = load ptr, ptr %2, align 8, !tbaa !7
  %52 = getelementptr inbounds nuw %struct.ossl_cc_newreno_st, ptr %51, i32 0, i32 20
  %53 = load ptr, ptr %52, align 8, !tbaa !39
  %54 = icmp ne ptr %53, null
  br i1 %54, label %55, label %82

55:                                               ; preds = %50
  %56 = load ptr, ptr %2, align 8, !tbaa !7
  %57 = getelementptr inbounds nuw %struct.ossl_cc_newreno_st, ptr %56, i32 0, i32 15
  %58 = load i32, ptr %57, align 8, !tbaa !30
  %59 = icmp ne i32 %58, 0
  br i1 %59, label %60, label %64

60:                                               ; preds = %55
  %61 = load ptr, ptr %2, align 8, !tbaa !7
  %62 = getelementptr inbounds nuw %struct.ossl_cc_newreno_st, ptr %61, i32 0, i32 20
  %63 = load ptr, ptr %62, align 8, !tbaa !39
  store i32 82, ptr %63, align 4, !tbaa !49
  br label %81

64:                                               ; preds = %55
  %65 = load ptr, ptr %2, align 8, !tbaa !7
  %66 = getelementptr inbounds nuw %struct.ossl_cc_newreno_st, ptr %65, i32 0, i32 9
  %67 = load i64, ptr %66, align 8, !tbaa !23
  %68 = load ptr, ptr %2, align 8, !tbaa !7
  %69 = getelementptr inbounds nuw %struct.ossl_cc_newreno_st, ptr %68, i32 0, i32 10
  %70 = load i64, ptr %69, align 8, !tbaa !26
  %71 = icmp ult i64 %67, %70
  br i1 %71, label %72, label %76

72:                                               ; preds = %64
  %73 = load ptr, ptr %2, align 8, !tbaa !7
  %74 = getelementptr inbounds nuw %struct.ossl_cc_newreno_st, ptr %73, i32 0, i32 20
  %75 = load ptr, ptr %74, align 8, !tbaa !39
  store i32 83, ptr %75, align 4, !tbaa !49
  br label %80

76:                                               ; preds = %64
  %77 = load ptr, ptr %2, align 8, !tbaa !7
  %78 = getelementptr inbounds nuw %struct.ossl_cc_newreno_st, ptr %77, i32 0, i32 20
  %79 = load ptr, ptr %78, align 8, !tbaa !39
  store i32 65, ptr %79, align 4, !tbaa !49
  br label %80

80:                                               ; preds = %76, %72
  br label %81

81:                                               ; preds = %80, %60
  br label %82

82:                                               ; preds = %81, %50
  ret void
}

; Function Attrs: nounwind uwtable
define internal i32 @newreno_on_data_sent(ptr noundef %0, i64 noundef %1) #0 {
  %3 = alloca ptr, align 8
  %4 = alloca i64, align 8
  %5 = alloca ptr, align 8
  store ptr %0, ptr %3, align 8, !tbaa !17
  store i64 %1, ptr %4, align 8, !tbaa !28
  call void @llvm.lifetime.start.p0(i64 8, ptr %5) #6
  %6 = load ptr, ptr %3, align 8, !tbaa !17
  store ptr %6, ptr %5, align 8, !tbaa !7
  %7 = load i64, ptr %4, align 8, !tbaa !28
  %8 = load ptr, ptr %5, align 8, !tbaa !7
  %9 = getelementptr inbounds nuw %struct.ossl_cc_newreno_st, ptr %8, i32 0, i32 8
  %10 = load i64, ptr %9, align 8, !tbaa !24
  %11 = add i64 %10, %7
  store i64 %11, ptr %9, align 8, !tbaa !24
  %12 = load ptr, ptr %5, align 8, !tbaa !7
  call void @newreno_update_diag(ptr noundef %12)
  call void @llvm.lifetime.end.p0(i64 8, ptr %5) #6
  ret i32 1
}