; Function Attrs: mustprogress nofree norecurse nosync nounwind willreturn memory(write, argmem: readwrite, inaccessiblemem: none) uwtable
define internal noundef i32 @newreno_on_data_sent(ptr noundef captures(none) %0, i64 noundef %1) #3 {
  %3 = getelementptr inbounds nuw i8, ptr %0, i64 56
  %4 = load i64, ptr %3, align 8, !tbaa !23
  %5 = add i64 %4, %1
  store i64 %5, ptr %3, align 8, !tbaa !23
  %6 = getelementptr inbounds nuw i8, ptr %0, i64 120
  %7 = load ptr, ptr %6, align 8, !tbaa !18
  %.not.i = icmp eq ptr %7, null
  br i1 %.not.i, label %11, label %8

8:                                                ; preds = %2
  %9 = getelementptr inbounds nuw i8, ptr %0, i64 48
  %10 = load i64, ptr %9, align 8, !tbaa !14
  store i64 %10, ptr %7, align 8, !tbaa !19
  br label %11

11:                                               ; preds = %8, %2
  %12 = getelementptr inbounds nuw i8, ptr %0, i64 128
  %13 = load ptr, ptr %12, align 8, !tbaa !20
  %.not23.i = icmp eq ptr %13, null
  br i1 %.not23.i, label %17, label %14

14:                                               ; preds = %11
  %15 = getelementptr inbounds nuw i8, ptr %0, i64 64
  %16 = load i64, ptr %15, align 8, !tbaa !17
  store i64 %16, ptr %13, align 8, !tbaa !19
  br label %17

17:                                               ; preds = %14, %11
  %18 = getelementptr inbounds nuw i8, ptr %0, i64 136
  %19 = load ptr, ptr %18, align 8, !tbaa !21
  %.not24.i = icmp eq ptr %19, null
  br i1 %.not24.i, label %23, label %20

20:                                               ; preds = %17
  %21 = getelementptr inbounds nuw i8, ptr %0, i64 24
  %22 = load i64, ptr %21, align 8, !tbaa !16
  store i64 %22, ptr %19, align 8, !tbaa !19
  br label %23

23:                                               ; preds = %20, %17
  %24 = getelementptr inbounds nuw i8, ptr %0, i64 144
  %25 = load ptr, ptr %24, align 8, !tbaa !22
  %.not25.i = icmp eq ptr %25, null
  br i1 %.not25.i, label %28, label %26

26:                                               ; preds = %23
  %27 = load i64, ptr %3, align 8, !tbaa !23
  store i64 %27, ptr %25, align 8, !tbaa !19
  br label %28

28:                                               ; preds = %26, %23
  %29 = getelementptr inbounds nuw i8, ptr %0, i64 152
  %30 = load ptr, ptr %29, align 8, !tbaa !24
  %.not26.i = icmp eq ptr %30, null
  br i1 %.not26.i, label %newreno_update_diag.exit, label %31

31:                                               ; preds = %28
  %32 = getelementptr inbounds nuw i8, ptr %0, i64 112
  %33 = load i32, ptr %32, align 8, !tbaa !25
  %.not27.i = icmp eq i32 %33, 0
  br i1 %.not27.i, label %34, label %.sink.split.i

34:                                               ; preds = %31
  %35 = getelementptr inbounds nuw i8, ptr %0, i64 64
  %36 = load i64, ptr %35, align 8, !tbaa !17
  %37 = getelementptr inbounds nuw i8, ptr %0, i64 72
  %38 = load i64, ptr %37, align 8, !tbaa !26
  %39 = icmp ult i64 %36, %38
  %..i = select i1 %39, i32 83, i32 65
  br label %.sink.split.i

.sink.split.i:                                    ; preds = %34, %31
  %.sink.i = phi i32 [ 82, %31 ], [ %..i, %34 ]
  store i32 %.sink.i, ptr %30, align 4, !tbaa !27
  br label %newreno_update_diag.exit

newreno_update_diag.exit:                         ; preds = %28, %.sink.split.i
  ret i32 1
}